target datalayout = "e-m:e-p270:32:32-p271:32:32-p272:64:64-i64:64-i128:128-f80:128-n8:16:32:64-S128"
target triple = "x86_64-pc-linux-gnu"

%"class.cv::xfeatures2d::DAISY_Impl" = type { %"class.cv::xfeatures2d::DAISY", float, i32, i32, i32, i32, i32, i32, i32, i8, i8, i8, i8, %"class.cv::Mat", %"class.cv::Mat", %"class.cv::Rect_", %"class.std::vector.0", %"class.cv::Mat", %"class.cv::Mat", %"class.cv::Mat", %"class.cv::Mat", %"class.cv::Mat", [360 x double] }
%"class.cv::xfeatures2d::DAISY" = type { %"class.cv::Feature2D" }
%"class.cv::Feature2D" = type { %"class.cv::Algorithm" }
%"class.cv::Algorithm" = type { ptr }
%"class.cv::Rect_" = type { i32, i32, i32, i32 }
%"class.std::vector.0" = type { %"struct.std::_Vector_base.1" }
%"struct.std::_Vector_base.1" = type { %"struct.std::_Vector_base<cv::Mat, std::allocator<cv::Mat>>::_Vector_impl" }
%"struct.std::_Vector_base<cv::Mat, std::allocator<cv::Mat>>::_Vector_impl" = type { %"struct.std::_Vector_base<cv::Mat, std::allocator<cv::Mat>>::_Vector_impl_data" }
%"struct.std::_Vector_base<cv::Mat, std::allocator<cv::Mat>>::_Vector_impl_data" = type { ptr, ptr, ptr }
%"class.cv::Mat" = type { i32, i32, i32, i32, ptr, ptr, ptr, ptr, ptr, ptr, %"struct.cv::MatSize", %"struct.cv::MatStep" }
%"struct.cv::MatSize" = type { ptr }
%"struct.cv::MatStep" = type { ptr, [2 x i64] }
%"class.cv::_InputArray" = type { i32, ptr, %"class.cv::Size_" }
%"class.cv::Size_" = type { i32, i32 }

; Function Attrs: mustprogress nounwind uwtable
define linkonce_odr hidden void @_ZNSt15__new_allocatorIN2cv3MatEEC2Ev(ptr noundef nonnull align 1 dereferenceable(1) %0) unnamed_addr #8 comdat align 2 {
  %2 = alloca ptr, align 8
  store ptr %0, ptr %2, align 8, !tbaa !218
  ret void
}

; Function Attrs: mustprogress nounwind uwtable
define linkonce_odr hidden void @_ZNSt12_Vector_baseIN2cv3MatESaIS1_EE17_Vector_impl_dataC2Ev(ptr noundef nonnull align 8 dereferenceable(24) %0) unnamed_addr #8 comdat align 2 {
  %2 = alloca ptr, align 8
  store ptr %0, ptr %2, align 8, !tbaa !310
  %3 = load ptr, ptr %2, align 8
  %4 = getelementptr inbounds nuw %"struct.std::_Vector_base<cv::Mat, std::allocator<cv::Mat>>::_Vector_impl_data", ptr %3, i32 0, i32 0
  store ptr null, ptr %4, align 8, !tbaa !114
  %5 = getelementptr inbounds nuw %"struct.std::_Vector_base<cv::Mat, std::allocator<cv::Mat>>::_Vector_impl_data", ptr %3, i32 0, i32 1
  store ptr null, ptr %5, align 8, !tbaa !115
  %6 = getelementptr inbounds nuw %"struct.std::_Vector_base<cv::Mat, std::allocator<cv::Mat>>::_Vector_impl_data", ptr %3, i32 0, i32 2
  store ptr null, ptr %6, align 8, !tbaa !216
  ret void
}

; Function Attrs: mustprogress nounwind uwtable
define linkonce_odr hidden void @_ZNSaIN2cv3MatEEC2Ev(ptr noundef nonnull align 1 dereferenceable(1) %0) unnamed_addr #8 comdat align 2 {
  %2 = alloca ptr, align 8
  store ptr %0, ptr %2, align 8, !tbaa !196
  %3 = load ptr, ptr %2, align 8
  call void @_ZNSt15__new_allocatorIN2cv3MatEEC2Ev(ptr noundef nonnull align 1 dereferenceable(1) %3) #24
  ret void
}

; Function Attrs: mustprogress nounwind uwtable
define linkonce_odr hidden void @_ZNSt12_Vector_baseIN2cv3MatESaIS1_EE12_Vector_implC2Ev(ptr noundef nonnull align 8 dereferenceable(24) %0) unnamed_addr #8 comdat align 2 {
  %2 = alloca ptr, align 8
  store ptr %0, ptr %2, align 8, !tbaa !308
  %3 = load ptr, ptr %2, align 8
  call void @_ZNSaIN2cv3MatEEC2Ev(ptr noundef nonnull align 1 dereferenceable(1) %3) #24
  call void @_ZNSt12_Vector_baseIN2cv3MatESaIS1_EE17_Vector_impl_dataC2Ev(ptr noundef nonnull align 8 dereferenceable(24) %3) #24
  ret void
}

; Function Attrs: mustprogress nounwind uwtable
define linkonce_odr hidden void @_ZNSt12_Vector_baseIN2cv3MatESaIS1_EEC2Ev(ptr noundef nonnull align 8 dereferenceable(24) %0) unnamed_addr #8 comdat align 2 {
  %2 = alloca ptr, align 8
  store ptr %0, ptr %2, align 8, !tbaa !198
  %3 = load ptr, ptr %2, align 8
  %4 = getelementptr inbounds nuw %"struct.std::_Vector_base.1", ptr %3, i32 0, i32 0
  call void @_ZNSt12_Vector_baseIN2cv3MatESaIS1_EE12_Vector_implC2Ev(ptr noundef nonnull align 8 dereferenceable(24) %4) #24
  ret void
}

; Function Attrs: inlinehint mustprogress nounwind uwtable
define linkonce_odr hidden void @_ZN2cv9Feature2DC2Ev(ptr noundef nonnull align 8 dereferenceable(8) %0, ptr noundef %1) unnamed_addr #3 comdat align 2 {
  %3 = alloca ptr, align 8
  %4 = alloca ptr, align 8
  store ptr %0, ptr %3, align 8, !tbaa !306
  store ptr %1, ptr %4, align 8, !tbaa !107
  %5 = load ptr, ptr %3, align 8
  %6 = load ptr, ptr %4, align 8
  %7 = load ptr, ptr %6, align 8
  store ptr %7, ptr %5, align 8, !tbaa !110
  %8 = getelementptr inbounds ptr, ptr %6, i64 1
  %9 = load ptr, ptr %8, align 8
  %10 = load ptr, ptr %5, align 8, !tbaa !110
  %11 = getelementptr i8, ptr %10, i64 -80
  %12 = load i64, ptr %11, align 8
  %13 = getelementptr inbounds i8, ptr %5, i64 %12
  store ptr %9, ptr %13, align 8, !tbaa !110
  ret void
}

; Function Attrs: inlinehint mustprogress nounwind uwtable
define linkonce_odr hidden void @_ZN2cv11xfeatures2d5DAISYD2Ev(ptr noundef nonnull align 8 dereferenceable(8) %0, ptr noundef %1) unnamed_addr #3 comdat align 2 {
  %3 = alloca ptr, align 8
  %4 = alloca ptr, align 8
  store ptr %0, ptr %3, align 8, !tbaa !9
  store ptr %1, ptr %4, align 8, !tbaa !107
  %5 = load ptr, ptr %3, align 8
  %6 = load ptr, ptr %4, align 8
  %7 = getelementptr inbounds ptr, ptr %6, i64 1
  call void @_ZN2cv9Feature2DD2Ev(ptr noundef nonnull align 8 dereferenceable(8) %5, ptr noundef %7) #24
  ret void
}

; Function Attrs: inlinehint mustprogress uwtable
define linkonce_odr hidden void @_ZNK2cv11_InputArray6getMatEi(ptr dead_on_unwind noalias writable sret(%"class.cv::Mat") align 8 %0, ptr noundef nonnull align 8 dereferenceable(24) %1, i32 noundef %2) #6 comdat align 2 {
  %4 = alloca ptr, align 8
  %5 = alloca ptr, align 8
  %6 = alloca i32, align 4
  store ptr %0, ptr %4, align 8
  store ptr %1, ptr %5, align 8, !tbaa !12
  store i32 %2, ptr %6, align 4, !tbaa !3
  %7 = load ptr, ptr %5, align 8
  %8 = call noundef i32 @_ZNK2cv11_InputArray4kindEv(ptr noundef nonnull align 8 dereferenceable(24) %7)
  %9 = icmp eq i32 %8, 65536
  br i1 %9, label %10, label %16

10:                                               ; preds = %3
  %11 = load i32, ptr %6, align 4, !tbaa !3
  %12 = icmp slt i32 %11, 0
  br i1 %12, label %13, label %16

13:                                               ; preds = %10
  %14 = getelementptr inbounds nuw %"class.cv::_InputArray", ptr %7, i32 0, i32 1
  %15 = load ptr, ptr %14, align 8, !tbaa !71
  call void @_ZN2cv3MatC1ERKS0_(ptr noundef nonnull align 8 dereferenceable(96) %0, ptr noundef nonnull align 8 dereferenceable(96) %15)
  br label %18

16:                                               ; preds = %10, %3
  %17 = load i32, ptr %6, align 4, !tbaa !3
  call void @_ZNK2cv11_InputArray7getMat_Ei(ptr dead_on_unwind writable sret(%"class.cv::Mat") align 8 %0, ptr noundef nonnull align 8 dereferenceable(24) %7, i32 noundef %17)
  br label %18

18:                                               ; preds = %16, %13
  ret void
}

; Function Attrs: mustprogress nounwind uwtable
define linkonce_odr hidden void @_ZNSt6vectorIN2cv3MatESaIS1_EEC2Ev(ptr noundef nonnull align 8 dereferenceable(24) %0) unnamed_addr #8 comdat align 2 {
  %2 = alloca ptr, align 8
  store ptr %0, ptr %2, align 8, !tbaa !50
  %3 = load ptr, ptr %2, align 8
  call void @_ZNSt12_Vector_baseIN2cv3MatESaIS1_EEC2Ev(ptr noundef nonnull align 8 dereferenceable(24) %3) #24
  ret void
}

; Function Attrs: inlinehint mustprogress nounwind uwtable
define linkonce_odr hidden void @_ZN2cv5Rect_IiEC2Ev(ptr noundef nonnull align 4 dereferenceable(16) %0) unnamed_addr #3 comdat align 2 {
  %2 = alloca ptr, align 8
  store ptr %0, ptr %2, align 8, !tbaa !74
  %3 = load ptr, ptr %2, align 8
  %4 = getelementptr inbounds nuw %"class.cv::Rect_", ptr %3, i32 0, i32 0
  store i32 0, ptr %4, align 4, !tbaa !76
  %5 = getelementptr inbounds nuw %"class.cv::Rect_", ptr %3, i32 0, i32 1
  store i32 0, ptr %5, align 4, !tbaa !77
  %6 = getelementptr inbounds nuw %"class.cv::Rect_", ptr %3, i32 0, i32 2
  store i32 0, ptr %6, align 4, !tbaa !78
  %7 = getelementptr inbounds nuw %"class.cv::Rect_", ptr %3, i32 0, i32 3
  store i32 0, ptr %7, align 4, !tbaa !79
  ret void
}

; Function Attrs: inlinehint mustprogress uwtable
define linkonce_odr hidden void @_ZN2cv11xfeatures2d5DAISYC2Ev(ptr noundef nonnull align 8 dereferenceable(8) %0, ptr noundef %1) unnamed_addr #6 comdat align 2 {
  %3 = alloca ptr, align 8
  %4 = alloca ptr, align 8
  store ptr %0, ptr %3, align 8, !tbaa !9
  store ptr %1, ptr %4, align 8, !tbaa !107
  %5 = load ptr, ptr %3, align 8
  %6 = load ptr, ptr %4, align 8
  %7 = getelementptr inbounds ptr, ptr %6, i64 1
  call void @_ZN2cv9Feature2DC2Ev(ptr noundef nonnull align 8 dereferenceable(8) %5, ptr noundef %7)
  %8 = load ptr, ptr %6, align 8
  store ptr %8, ptr %5, align 8, !tbaa !110
  %9 = getelementptr inbounds ptr, ptr %6, i64 3
  %10 = load ptr, ptr %9, align 8
  %11 = load ptr, ptr %5, align 8, !tbaa !110
  %12 = getelementptr i8, ptr %11, i64 -80
  %13 = load i64, ptr %12, align 8
  %14 = getelementptr inbounds i8, ptr %5, i64 %13
  store ptr %10, ptr %14, align 8, !tbaa !110
  ret void
}

; Function Attrs: mustprogress uwtable
define hidden void @_ZN2cv11xfeatures2d10DAISY_ImplC2EfiiiNS0_5DAISY17NormalizationTypeERKNS_11_InputArrayEbb(ptr noundef nonnull align 8 dereferenceable(3640) %0, ptr noundef %1, float noundef %2, i32 noundef %3, i32 noundef %4, i32 noundef %5, i32 noundef %6, ptr noundef nonnull align 8 dereferenceable(24) %7, i1 noundef zeroext %8, i1 noundef zeroext %9) unnamed_addr #4 align 2 personality ptr @__gxx_personality_v0 {
  %11 = alloca ptr, align 8
  %12 = alloca ptr, align 8
  %13 = alloca float, align 4
  %14 = alloca i32, align 4
  %15 = alloca i32, align 4
  %16 = alloca i32, align 4
  %17 = alloca i32, align 4
  %18 = alloca ptr, align 8
  %19 = alloca i8, align 1
  %20 = alloca i8, align 1
  %21 = alloca ptr, align 8
  %22 = alloca i32, align 4
  %23 = alloca %"class.cv::Mat", align 8
  store ptr %0, ptr %11, align 8, !tbaa !18
  store ptr %1, ptr %12, align 8, !tbaa !107
  store float %2, ptr %13, align 4, !tbaa !109
  store i32 %3, ptr %14, align 4, !tbaa !3
  store i32 %4, ptr %15, align 4, !tbaa !3
  store i32 %5, ptr %16, align 4, !tbaa !3
  store i32 %6, ptr %17, align 4, !tbaa !56
  store ptr %7, ptr %18, align 8, !tbaa !12
  %24 = zext i1 %8 to i8
  store i8 %24, ptr %19, align 1, !tbaa !55
  %25 = zext i1 %9 to i8
  store i8 %25, ptr %20, align 1, !tbaa !55
  %26 = load ptr, ptr %11, align 8
  %27 = load ptr, ptr %12, align 8
  %28 = getelementptr inbounds ptr, ptr %27, i64 1
  call void @_ZN2cv11xfeatures2d5DAISYC2Ev(ptr noundef nonnull align 8 dereferenceable(8) %26, ptr noundef %28)
  %29 = load ptr, ptr %27, align 8
  store ptr %29, ptr %26, align 8, !tbaa !110
  %30 = getelementptr inbounds ptr, ptr %27, i64 5
  %31 = load ptr, ptr %30, align 8
  %32 = load ptr, ptr %26, align 8, !tbaa !110
  %33 = getelementptr i8, ptr %32, i64 -80
  %34 = load i64, ptr %33, align 8
  %35 = getelementptr inbounds i8, ptr %26, i64 %34
  store ptr %31, ptr %35, align 8, !tbaa !110
  %36 = getelementptr inbounds nuw %"class.cv::xfeatures2d::DAISY_Impl", ptr %26, i32 0, i32 1
  %37 = load float, ptr %13, align 4, !tbaa !109
  store float %37, ptr %36, align 8, !tbaa !112
  %38 = getelementptr inbounds nuw %"class.cv::xfeatures2d::DAISY_Impl", ptr %26, i32 0, i32 2
  %39 = load i32, ptr %14, align 4, !tbaa !3
  store i32 %39, ptr %38, align 4, !tbaa !81
  %40 = getelementptr inbounds nuw %"class.cv::xfeatures2d::DAISY_Impl", ptr %26, i32 0, i32 3
  %41 = load i32, ptr %15, align 4, !tbaa !3
  store i32 %41, ptr %40, align 8, !tbaa !22
  %42 = getelementptr inbounds nuw %"class.cv::xfeatures2d::DAISY_Impl", ptr %26, i32 0, i32 4
  %43 = load i32, ptr %16, align 4, !tbaa !3
  store i32 %43, ptr %42, align 4, !tbaa !43
  %44 = getelementptr inbounds nuw %"class.cv::xfeatures2d::DAISY_Impl", ptr %26, i32 0, i32 5
  %45 = load i32, ptr %17, align 4, !tbaa !56
  store i32 %45, ptr %44, align 8, !tbaa !49
  %46 = getelementptr inbounds nuw %"class.cv::xfeatures2d::DAISY_Impl", ptr %26, i32 0, i32 11
  %47 = load i8, ptr %19, align 1, !tbaa !55, !range !47, !noundef !48
  %48 = trunc i8 %47 to i1
  %49 = zext i1 %48 to i8
  store i8 %49, ptr %46, align 2, !tbaa !46
  %50 = getelementptr inbounds nuw %"class.cv::xfeatures2d::DAISY_Impl", ptr %26, i32 0, i32 12
  %51 = load i8, ptr %20, align 1, !tbaa !55, !range !47, !noundef !48
  %52 = trunc i8 %51 to i1
  %53 = zext i1 %52 to i8
  store i8 %53, ptr %50, align 1, !tbaa !66
  %54 = getelementptr inbounds nuw %"class.cv::xfeatures2d::DAISY_Impl", ptr %26, i32 0, i32 13
  call void @_ZN2cv3MatC1Ev(ptr noundef nonnull align 8 dereferenceable(96) %54) #24
  %55 = getelementptr inbounds nuw %"class.cv::xfeatures2d::DAISY_Impl", ptr %26, i32 0, i32 14
  call void @_ZN2cv3MatC1Ev(ptr noundef nonnull align 8 dereferenceable(96) %55) #24
  %56 = getelementptr inbounds nuw %"class.cv::xfeatures2d::DAISY_Impl", ptr %26, i32 0, i32 15
  invoke void @_ZN2cv5Rect_IiEC2Ev(ptr noundef nonnull align 4 dereferenceable(16) %56)
          to label %57 unwind label %74

57:                                               ; preds = %10
  %58 = getelementptr inbounds nuw %"class.cv::xfeatures2d::DAISY_Impl", ptr %26, i32 0, i32 16
  call void @_ZNSt6vectorIN2cv3MatESaIS1_EEC2Ev(ptr noundef nonnull align 8 dereferenceable(24) %58) #24
  %59 = getelementptr inbounds nuw %"class.cv::xfeatures2d::DAISY_Impl", ptr %26, i32 0, i32 17
  call void @_ZN2cv3MatC1Ev(ptr noundef nonnull align 8 dereferenceable(96) %59) #24
  %60 = getelementptr inbounds nuw %"class.cv::xfeatures2d::DAISY_Impl", ptr %26, i32 0, i32 18
  call void @_ZN2cv3MatC1Ev(ptr noundef nonnull align 8 dereferenceable(96) %60) #24
  %61 = getelementptr inbounds nuw %"class.cv::xfeatures2d::DAISY_Impl", ptr %26, i32 0, i32 19
  call void @_ZN2cv3MatC1Ev(ptr noundef nonnull align 8 dereferenceable(96) %61) #24
  %62 = getelementptr inbounds nuw %"class.cv::xfeatures2d::DAISY_Impl", ptr %26, i32 0, i32 20
  call void @_ZN2cv3MatC1Ev(ptr noundef nonnull align 8 dereferenceable(96) %62) #24
  %63 = getelementptr inbounds nuw %"class.cv::xfeatures2d::DAISY_Impl", ptr %26, i32 0, i32 21
  call void @_ZN2cv3MatC1Ev(ptr noundef nonnull align 8 dereferenceable(96) %63) #24
  %64 = getelementptr inbounds nuw %"class.cv::xfeatures2d::DAISY_Impl", ptr %26, i32 0, i32 6
  store i32 0, ptr %64, align 4, !tbaa !45
  %65 = getelementptr inbounds nuw %"class.cv::xfeatures2d::DAISY_Impl", ptr %26, i32 0, i32 7
  store i32 0, ptr %65, align 8, !tbaa !44
  %66 = getelementptr inbounds nuw %"class.cv::xfeatures2d::DAISY_Impl", ptr %26, i32 0, i32 9
  store i8 0, ptr %66, align 8, !tbaa !105
  %67 = getelementptr inbounds nuw %"class.cv::xfeatures2d::DAISY_Impl", ptr %26, i32 0, i32 10
  store i8 0, ptr %67, align 1, !tbaa !106
  %68 = getelementptr inbounds nuw %"class.cv::xfeatures2d::DAISY_Impl", ptr %26, i32 0, i32 8
  store i32 36, ptr %68, align 4, !tbaa !113
  call void @llvm.lifetime.start.p0(i64 96, ptr %23) #24
  %69 = load ptr, ptr %18, align 8, !tbaa !12
  invoke void @_ZNK2cv11_InputArray6getMatEi(ptr dead_on_unwind writable sret(%"class.cv::Mat") align 8 %23, ptr noundef nonnull align 8 dereferenceable(24) %69, i32 noundef -1)
          to label %70 unwind label %78

70:                                               ; preds = %57
  %71 = getelementptr inbounds nuw %"class.cv::xfeatures2d::DAISY_Impl", ptr %26, i32 0, i32 13
  %72 = invoke noundef nonnull align 8 dereferenceable(96) ptr @_ZN2cv3MataSEOS0_(ptr noundef nonnull align 8 dereferenceable(96) %71, ptr noundef nonnull align 8 dereferenceable(96) %23)
          to label %73 unwind label %82

73:                                               ; preds = %70
  call void @_ZN2cv3MatD1Ev(ptr noundef nonnull align 8 dereferenceable(96) %23) #24
  call void @llvm.lifetime.end.p0(i64 96, ptr %23) #24
  ret void

74:                                               ; preds = %10
  %75 = landingpad { ptr, i32 }
          cleanup
  %76 = extractvalue { ptr, i32 } %75, 0
  store ptr %76, ptr %21, align 8
  %77 = extractvalue { ptr, i32 } %75, 1
  store i32 %77, ptr %22, align 4
  br label %87

78:                                               ; preds = %57
  %79 = landingpad { ptr, i32 }
          cleanup
  %80 = extractvalue { ptr, i32 } %79, 0
  store ptr %80, ptr %21, align 8
  %81 = extractvalue { ptr, i32 } %79, 1
  store i32 %81, ptr %22, align 4
  br label %86

82:                                               ; preds = %70
  %83 = landingpad { ptr, i32 }
          cleanup
  %84 = extractvalue { ptr, i32 } %83, 0
  store ptr %84, ptr %21, align 8
  %85 = extractvalue { ptr, i32 } %83, 1
  store i32 %85, ptr %22, align 4
  call void @_ZN2cv3MatD1Ev(ptr noundef nonnull align 8 dereferenceable(96) %23) #24
  br label %86

86:                                               ; preds = %82, %78
  call void @llvm.lifetime.end.p0(i64 96, ptr %23) #24
  call void @_ZN2cv3MatD1Ev(ptr noundef nonnull align 8 dereferenceable(96) %63) #24
  call void @_ZN2cv3MatD1Ev(ptr noundef nonnull align 8 dereferenceable(96) %62) #24
  call void @_ZN2cv3MatD1Ev(ptr noundef nonnull align 8 dereferenceable(96) %61) #24
  call void @_ZN2cv3MatD1Ev(ptr noundef nonnull align 8 dereferenceable(96) %60) #24
  call void @_ZN2cv3MatD1Ev(ptr noundef nonnull align 8 dereferenceable(96) %59) #24
  call void @_ZNSt6vectorIN2cv3MatESaIS1_EED2Ev(ptr noundef nonnull align 8 dereferenceable(24) %58) #24
  br label %87

87:                                               ; preds = %86, %74
  call void @_ZN2cv3MatD1Ev(ptr noundef nonnull align 8 dereferenceable(96) %55) #24
  call void @_ZN2cv3MatD1Ev(ptr noundef nonnull align 8 dereferenceable(96) %54) #24
  %88 = getelementptr inbounds ptr, ptr %27, i64 1
  call void @_ZN2cv11xfeatures2d5DAISYD2Ev(ptr noundef nonnull align 8 dereferenceable(8) %26, ptr noundef %88) #24
  br label %89

89:                                               ; preds = %87
  %90 = load ptr, ptr %21, align 8
  %91 = load i32, ptr %22, align 4
  %92 = insertvalue { ptr, i32 } poison, ptr %90, 0
  %93 = insertvalue { ptr, i32 } %92, i32 %91, 1
  resume { ptr, i32 } %93
}