; Function Attrs: mustprogress uwtable
define hidden void @_ZN2cv11xfeatures2d10DAISY_ImplC2EfiiiNS0_5DAISY17NormalizationTypeERKNS_11_InputArrayEbb(ptr noundef nonnull align 8 dereferenceable(3640) initializes((0, 28), (42, 44)) %0, ptr noundef %1, float noundef %2, i32 noundef %3, i32 noundef %4, i32 noundef %5, i32 noundef %6, ptr noundef nonnull align 8 dereferenceable(24) %7, i1 noundef zeroext %8, i1 noundef zeroext %9) unnamed_addr #1 align 2 personality ptr @__gxx_personality_v0 {
  %11 = alloca %"class.cv::Mat", align 8
  %12 = zext i1 %8 to i8
  %13 = zext i1 %9 to i8
  %14 = getelementptr inbounds nuw i8, ptr %1, i64 8
  %15 = getelementptr inbounds nuw i8, ptr %1, i64 16
  %16 = load ptr, ptr %15, align 8
  store ptr %16, ptr %0, align 8, !tbaa !122
  %17 = getelementptr inbounds nuw i8, ptr %1, i64 24
  %18 = load ptr, ptr %17, align 8
  %19 = getelementptr i8, ptr %16, i64 -80
  %20 = load i64, ptr %19, align 8
  %21 = getelementptr inbounds i8, ptr %0, i64 %20
  store ptr %18, ptr %21, align 8, !tbaa !122
  %22 = load ptr, ptr %14, align 8
  store ptr %22, ptr %0, align 8, !tbaa !122
  %23 = getelementptr inbounds nuw i8, ptr %1, i64 32
  %24 = load ptr, ptr %23, align 8
  %25 = getelementptr i8, ptr %22, i64 -80
  %26 = load i64, ptr %25, align 8
  %27 = getelementptr inbounds i8, ptr %0, i64 %26
  store ptr %24, ptr %27, align 8, !tbaa !122
  %28 = load ptr, ptr %1, align 8
  store ptr %28, ptr %0, align 8, !tbaa !122
  %29 = getelementptr inbounds nuw i8, ptr %1, i64 40
  %30 = load ptr, ptr %29, align 8
  %31 = getelementptr i8, ptr %28, i64 -80
  %32 = load i64, ptr %31, align 8
  %33 = getelementptr inbounds i8, ptr %0, i64 %32
  store ptr %30, ptr %33, align 8, !tbaa !122
  %34 = getelementptr inbounds nuw i8, ptr %0, i64 8
  store float %2, ptr %34, align 8, !tbaa !152
  %35 = getelementptr inbounds nuw i8, ptr %0, i64 12
  store i32 %3, ptr %35, align 4, !tbaa !87
  %36 = getelementptr inbounds nuw i8, ptr %0, i64 16
  store i32 %4, ptr %36, align 8, !tbaa !3
  %37 = getelementptr inbounds nuw i8, ptr %0, i64 20
  store i32 %5, ptr %37, align 4, !tbaa !28
  %38 = getelementptr inbounds nuw i8, ptr %0, i64 24
  store i32 %6, ptr %38, align 8, !tbaa !34
  %39 = getelementptr inbounds nuw i8, ptr %0, i64 42
  store i8 %12, ptr %39, align 2, !tbaa !31
  %40 = getelementptr inbounds nuw i8, ptr %0, i64 43
  store i8 %13, ptr %40, align 1, !tbaa !100
  %41 = getelementptr inbounds nuw i8, ptr %0, i64 48
  tail call void @_ZN2cv3MatC1Ev(ptr noundef nonnull align 8 dereferenceable(96) %41) #28
  %42 = getelementptr inbounds nuw i8, ptr %0, i64 144
  tail call void @_ZN2cv3MatC1Ev(ptr noundef nonnull align 8 dereferenceable(96) %42) #28
  %43 = getelementptr inbounds nuw i8, ptr %0, i64 240
  %44 = getelementptr inbounds nuw i8, ptr %0, i64 280
  tail call void @llvm.memset.p0.i64(ptr noundef nonnull align 8 dereferenceable(40) %43, i8 0, i64 40, i1 false)
  tail call void @_ZN2cv3MatC1Ev(ptr noundef nonnull align 8 dereferenceable(96) %44) #28
  %45 = getelementptr inbounds nuw i8, ptr %0, i64 376
  tail call void @_ZN2cv3MatC1Ev(ptr noundef nonnull align 8 dereferenceable(96) %45) #28
  %46 = getelementptr inbounds nuw i8, ptr %0, i64 472
  tail call void @_ZN2cv3MatC1Ev(ptr noundef nonnull align 8 dereferenceable(96) %46) #28
  %47 = getelementptr inbounds nuw i8, ptr %0, i64 568
  tail call void @_ZN2cv3MatC1Ev(ptr noundef nonnull align 8 dereferenceable(96) %47) #28
  %48 = getelementptr inbounds nuw i8, ptr %0, i64 664
  tail call void @_ZN2cv3MatC1Ev(ptr noundef nonnull align 8 dereferenceable(96) %48) #28
  %49 = getelementptr inbounds nuw i8, ptr %0, i64 28
  store i32 0, ptr %49, align 4, !tbaa !30
  %50 = getelementptr inbounds nuw i8, ptr %0, i64 32
  store i32 0, ptr %50, align 8, !tbaa !29
  %51 = getelementptr inbounds nuw i8, ptr %0, i64 40
  store i8 0, ptr %51, align 8, !tbaa !120
  %52 = getelementptr inbounds nuw i8, ptr %0, i64 41
  store i8 0, ptr %52, align 1, !tbaa !121
  %53 = getelementptr inbounds nuw i8, ptr %0, i64 36
  store i32 36, ptr %53, align 4, !tbaa !153
  call void @llvm.lifetime.start.p0(i64 96, ptr nonnull %11) #28
  %54 = invoke noundef i32 @_ZNK2cv11_InputArray4kindEv(ptr noundef nonnull align 8 dereferenceable(24) %7)
          to label %.noexc unwind label %62

.noexc:                                           ; preds = %10
  %55 = icmp eq i32 %54, 65536
  br i1 %55, label %56, label %59

56:                                               ; preds = %.noexc
  %57 = getelementptr inbounds nuw i8, ptr %7, i64 8
  %58 = load ptr, ptr %57, align 8, !tbaa !81, !noalias !154
  invoke void @_ZN2cv3MatC1ERKS0_(ptr noundef nonnull align 8 dereferenceable(96) %11, ptr noundef nonnull align 8 dereferenceable(96) %58)
          to label %_ZNK2cv11_InputArray6getMatEi.exit unwind label %62

59:                                               ; preds = %.noexc
  invoke void @_ZNK2cv11_InputArray7getMat_Ei(ptr dead_on_unwind nonnull writable sret(%"class.cv::Mat") align 8 %11, ptr noundef nonnull align 8 dereferenceable(24) %7, i32 noundef -1)
          to label %_ZNK2cv11_InputArray6getMatEi.exit unwind label %62

_ZNK2cv11_InputArray6getMatEi.exit:               ; preds = %56, %59
  %60 = invoke noundef nonnull align 8 dereferenceable(96) ptr @_ZN2cv3MataSEOS0_(ptr noundef nonnull align 8 dereferenceable(96) %41, ptr noundef nonnull align 8 dereferenceable(96) %11)
          to label %61 unwind label %64

61:                                               ; preds = %_ZNK2cv11_InputArray6getMatEi.exit
  call void @_ZN2cv3MatD1Ev(ptr noundef nonnull align 8 dereferenceable(96) %11) #28
  call void @llvm.lifetime.end.p0(i64 96, ptr nonnull %11) #28
  ret void

62:                                               ; preds = %59, %56, %10
  %63 = landingpad { ptr, i32 }
          cleanup
  br label %66

64:                                               ; preds = %_ZNK2cv11_InputArray6getMatEi.exit
  %65 = landingpad { ptr, i32 }
          cleanup
  call void @_ZN2cv3MatD1Ev(ptr noundef nonnull align 8 dereferenceable(96) %11) #28
  br label %66

66:                                               ; preds = %64, %62
  %.pn = phi { ptr, i32 } [ %65, %64 ], [ %63, %62 ]
  %67 = getelementptr inbounds nuw i8, ptr %0, i64 256
  call void @llvm.lifetime.end.p0(i64 96, ptr nonnull %11) #28
  call void @_ZN2cv3MatD1Ev(ptr noundef nonnull align 8 dereferenceable(96) %48) #28
  call void @_ZN2cv3MatD1Ev(ptr noundef nonnull align 8 dereferenceable(96) %47) #28
  call void @_ZN2cv3MatD1Ev(ptr noundef nonnull align 8 dereferenceable(96) %46) #28
  call void @_ZN2cv3MatD1Ev(ptr noundef nonnull align 8 dereferenceable(96) %45) #28
  call void @_ZN2cv3MatD1Ev(ptr noundef nonnull align 8 dereferenceable(96) %44) #28
  call void @_ZNSt6vectorIN2cv3MatESaIS1_EED2Ev(ptr noundef nonnull align 8 dereferenceable(24) %67) #28
  call void @_ZN2cv3MatD1Ev(ptr noundef nonnull align 8 dereferenceable(96) %42) #28
  call void @_ZN2cv3MatD1Ev(ptr noundef nonnull align 8 dereferenceable(96) %41) #28
  call void @_ZN2cv9Feature2DD2Ev(ptr noundef nonnull align 8 dereferenceable(8) %0, ptr noundef nonnull %15) #28
  resume { ptr, i32 } %.pn
}